; Function Attrs: mustprogress uwtable
define noundef range(i64 0, 4294967296) i64 @_ZNK6casadi10DaeBuilder15value_referenceERKNSt7__cxx1112basic_stringIcSt11char_traitsIcESaIcEEE(ptr noundef nonnull align 8 dereferenceable(8) %0, ptr noundef nonnull align 8 dereferenceable(32) %1) local_unnamed_addr #4 align 2 {
  %3 = tail call noundef ptr @_ZNK6casadi13GenericSharedINS_12SharedObjectENS_20SharedObjectInternalEEptEv(ptr noundef nonnull align 8 dereferenceable(8) %0)
  %4 = tail call noundef i64 @_ZNK6casadi18DaeBuilderInternal4findERKNSt7__cxx1112basic_stringIcSt11char_traitsIcESaIcEEE(ptr noundef nonnull align 8 dereferenceable(1017) %3, ptr noundef nonnull align 8 dereferenceable(32) %1)
  %5 = getelementptr inbounds nuw i8, ptr %3, i64 552
  %6 = getelementptr inbounds nuw i8, ptr %3, i64 560
  %7 = load ptr, ptr %6, align 8, !tbaa !103
  %8 = load ptr, ptr %5, align 8, !tbaa !104
  %9 = ptrtoint ptr %7 to i64
  %10 = ptrtoint ptr %8 to i64
  %11 = sub i64 %9, %10
  %12 = ashr exact i64 %11, 3
  %.not.i.i.i.i = icmp ult i64 %4, %12
  br i1 %.not.i.i.i.i, label %_ZNK6casadi18DaeBuilderInternal8variableERKNSt7__cxx1112basic_stringIcSt11char_traitsIcESaIcEEE.exit, label %13

13:                                               ; preds = %2
  tail call void (ptr, ...) @_ZSt24__throw_out_of_range_fmtPKcz(ptr noundef nonnull @.str.244, i64 noundef %4, i64 noundef %12) #27
  unreachable

_ZNK6casadi18DaeBuilderInternal8variableERKNSt7__cxx1112basic_stringIcSt11char_traitsIcESaIcEEE.exit: ; preds = %2
  %14 = getelementptr inbounds nuw ptr, ptr %8, i64 %4
  %15 = load ptr, ptr %14, align 8, !tbaa !105
  %16 = getelementptr inbounds nuw i8, ptr %15, i64 72
  %17 = load i32, ptr %16, align 8, !tbaa !199
  %18 = zext i32 %17 to i64
  ret i64 %18
}